; Function Attrs: mustprogress uwtable
define noundef zeroext i1 @_ZNK17IOPluginContainer30isOutputProjectFormatSupportedERK7QString(ptr noundef nonnull readonly align 8 captures(none) dereferenceable(72) %0, ptr noundef nonnull align 8 dereferenceable(8) %1) local_unnamed_addr #8 align 2 personality ptr @__gxx_personality_v0 {
  %3 = alloca %class.QString, align 8
  %4 = getelementptr inbounds nuw i8, ptr %0, i64 48
  call void @_ZN7QString14toLower_helperERKS_(ptr dead_on_unwind nonnull writable sret(%class.QString) align 8 %3, ptr noundef nonnull align 8 dereferenceable(8) %1)
  %5 = load ptr, ptr %4, align 8
  %6 = getelementptr inbounds nuw i8, ptr %5, i64 16
  %7 = load ptr, ptr %6, align 8
  %.not.i.i.i = icmp eq ptr %7, null
  br i1 %.not.i.i.i, label %13, label %.preheader.i.i.i

.preheader.i.i.i:                                 ; preds = %2, %.preheader.i.i.i
  %.011.i.i.i.i = phi ptr [ %.1.i.i.i.i, %.preheader.i.i.i ], [ null, %2 ]
  %.0810.i.i.i.i = phi ptr [ %.19.i.i.i.i, %.preheader.i.i.i ], [ %7, %2 ]
  %8 = getelementptr inbounds nuw i8, ptr %.0810.i.i.i.i, i64 24
  %9 = call noundef zeroext i1 @_ZltRK7QStringS1_(ptr noundef nonnull align 8 dereferenceable(8) %8, ptr noundef nonnull align 8 dereferenceable(8) %3) #20
  %.19.in.v.i.i.i.i = select i1 %9, i64 16, i64 8
  %.19.in.i.i.i.i = getelementptr inbounds nuw i8, ptr %.0810.i.i.i.i, i64 %.19.in.v.i.i.i.i
  %.1.i.i.i.i = select i1 %9, ptr %.011.i.i.i.i, ptr %.0810.i.i.i.i
  %.19.i.i.i.i = load ptr, ptr %.19.in.i.i.i.i, align 8
  %.not.i.i.i.i = icmp eq ptr %.19.i.i.i.i, null
  br i1 %.not.i.i.i.i, label %_ZN8QMapNodeI7QStringP8IOPluginE10lowerBoundERKS0_.exit.i.i.i, label %.preheader.i.i.i, !llvm.loop !13

_ZN8QMapNodeI7QStringP8IOPluginE10lowerBoundERKS0_.exit.i.i.i: ; preds = %.preheader.i.i.i
  %.not11.i.i.i = icmp eq ptr %.1.i.i.i.i, null
  br i1 %.not11.i.i.i, label %13, label %10

10:                                               ; preds = %_ZN8QMapNodeI7QStringP8IOPluginE10lowerBoundERKS0_.exit.i.i.i
  %11 = getelementptr inbounds nuw i8, ptr %.1.i.i.i.i, i64 24
  %12 = call noundef zeroext i1 @_ZltRK7QStringS1_(ptr noundef nonnull align 8 dereferenceable(8) %3, ptr noundef nonnull align 8 dereferenceable(8) %11) #20
  br i1 %12, label %13, label %16

13:                                               ; preds = %10, %_ZN8QMapNodeI7QStringP8IOPluginE10lowerBoundERKS0_.exit.i.i.i, %2
  %14 = load ptr, ptr %4, align 8
  %15 = getelementptr inbounds nuw i8, ptr %14, i64 8
  br label %16

16:                                               ; preds = %10, %13
  %17 = phi ptr [ %15, %13 ], [ %.1.i.i.i.i, %10 ]
  %18 = getelementptr inbounds nuw i8, ptr %0, i64 64
  %19 = load ptr, ptr %18, align 8
  %20 = load ptr, ptr %3, align 8
  %21 = load atomic i32, ptr %20 monotonic, align 4
  switch i32 %21, label %_ZN9QtPrivate8RefCount5derefEv.exit.i [
    i32 0, label %_ZN9QtPrivate8RefCount5derefEv.exit.thread2.i
    i32 -1, label %_ZN7QStringD2Ev.exit
  ]

_ZN9QtPrivate8RefCount5derefEv.exit.i:            ; preds = %16
  %22 = atomicrmw sub ptr %20, i32 1 seq_cst, align 4
  %.not.i = icmp eq i32 %22, 1
  br i1 %.not.i, label %_ZN9QtPrivate8RefCount5derefEv.exit._ZN9QtPrivate8RefCount5derefEv.exit.thread2_crit_edge.i, label %_ZN7QStringD2Ev.exit

_ZN9QtPrivate8RefCount5derefEv.exit._ZN9QtPrivate8RefCount5derefEv.exit.thread2_crit_edge.i: ; preds = %_ZN9QtPrivate8RefCount5derefEv.exit.i
  %.pre.i = load ptr, ptr %3, align 8
  br label %_ZN9QtPrivate8RefCount5derefEv.exit.thread2.i

_ZN9QtPrivate8RefCount5derefEv.exit.thread2.i:    ; preds = %_ZN9QtPrivate8RefCount5derefEv.exit._ZN9QtPrivate8RefCount5derefEv.exit.thread2_crit_edge.i, %16
  %23 = phi ptr [ %.pre.i, %_ZN9QtPrivate8RefCount5derefEv.exit._ZN9QtPrivate8RefCount5derefEv.exit.thread2_crit_edge.i ], [ %20, %16 ]
  call void @_ZN10QArrayData10deallocateEPS_mm(ptr noundef %23, i64 noundef 2, i64 noundef 8) #20
  br label %_ZN7QStringD2Ev.exit

_ZN7QStringD2Ev.exit:                             ; preds = %16, %_ZN9QtPrivate8RefCount5derefEv.exit.i, %_ZN9QtPrivate8RefCount5derefEv.exit.thread2.i
  %24 = getelementptr inbounds nuw i8, ptr %19, i64 8
  %25 = icmp ne ptr %17, %24
  ret i1 %25
}